target datalayout = "e-m:e-p270:32:32-p271:32:32-p272:64:64-i64:64-i128:128-f80:128-n8:16:32:64-S128"
target triple = "x86_64-pc-linux-gnu"

%struct.rb_data_type_struct = type { ptr, %struct.anon, ptr, ptr, i64 }
%struct.anon = type { ptr, ptr, ptr, ptr, [1 x ptr] }
%struct.asn1_string_st = type { i32, i32, ptr, i64 }

@rb_eRuntimeError = external global i64, align 8
@ossl_ts_token_info_type = internal constant %struct.rb_data_type_struct { ptr @.str.54, %struct.anon { ptr null, ptr @ossl_ts_token_info_free, ptr null, ptr null, [1 x ptr] zeroinitializer }, ptr null, ptr null, i64 33 }, align 8
@.str.53 = private unnamed_addr constant [32 x i8] c"TS_TST_INFO wasn't initialized.\00", align 1

; Function Attrs: nounwind sspstrong uwtable
define internal i64 @ossl_ts_token_info_get_msg_imprint(i64 noundef %0) #0 {
  %2 = alloca i64, align 8
  %3 = alloca ptr, align 8
  %4 = alloca ptr, align 8
  %5 = alloca ptr, align 8
  %6 = alloca i64, align 8
  store i64 %0, ptr %2, align 8, !tbaa !6
  call void @llvm.lifetime.start.p0(i64 8, ptr %3) #16
  call void @llvm.lifetime.start.p0(i64 8, ptr %4) #16
  call void @llvm.lifetime.start.p0(i64 8, ptr %5) #16
  call void @llvm.lifetime.start.p0(i64 8, ptr %6) #16
  br label %7

7:                                                ; preds = %1
  %8 = load i64, ptr %2, align 8, !tbaa !6
  %9 = call ptr @rb_check_typeddata(i64 noundef %8, ptr noundef @ossl_ts_token_info_type)
  store ptr %9, ptr %3, align 8, !tbaa !35
  %10 = load ptr, ptr %3, align 8, !tbaa !35
  %11 = icmp ne ptr %10, null
  br i1 %11, label %14, label %12

12:                                               ; preds = %7
  %13 = load i64, ptr @rb_eRuntimeError, align 8, !tbaa !6
  call void (i64, ptr, ...) @ossl_raise(i64 noundef %13, ptr noundef @.str.53) #17
  unreachable

14:                                               ; preds = %7
  br label %15

15:                                               ; preds = %14
  br label %16

16:                                               ; preds = %15
  %17 = load ptr, ptr %3, align 8, !tbaa !35
  %18 = call ptr @TS_TST_INFO_get_msg_imprint(ptr noundef %17)
  store ptr %18, ptr %4, align 8, !tbaa !59
  %19 = load ptr, ptr %4, align 8, !tbaa !59
  %20 = call ptr @TS_MSG_IMPRINT_get_msg(ptr noundef %19)
  store ptr %20, ptr %5, align 8, !tbaa !25
  br i1 false, label %21, label %26

21:                                               ; preds = %16
  %22 = load ptr, ptr %5, align 8, !tbaa !25
  %23 = getelementptr inbounds nuw %struct.asn1_string_st, ptr %22, i32 0, i32 0
  %24 = load i32, ptr %23, align 8, !tbaa !65
  %25 = call i1 @llvm.is.constant.i32(i32 %24)
  br label %26

26:                                               ; preds = %21, %16
  %27 = phi i1 [ false, %16 ], [ %25, %21 ]
  %28 = select i1 %27, ptr @rb_str_new_static, ptr @rb_str_new
  %29 = load ptr, ptr %5, align 8, !tbaa !25
  %30 = getelementptr inbounds nuw %struct.asn1_string_st, ptr %29, i32 0, i32 2
  %31 = load ptr, ptr %30, align 8, !tbaa !67
  %32 = load ptr, ptr %5, align 8, !tbaa !25
  %33 = getelementptr inbounds nuw %struct.asn1_string_st, ptr %32, i32 0, i32 0
  %34 = load i32, ptr %33, align 8, !tbaa !65
  %35 = sext i32 %34 to i64
  %36 = call i64 %28(ptr noundef %31, i64 noundef %35)
  store i64 %36, ptr %6, align 8, !tbaa !6
  %37 = load i64, ptr %6, align 8, !tbaa !6
  call void @llvm.lifetime.end.p0(i64 8, ptr %6) #16
  call void @llvm.lifetime.end.p0(i64 8, ptr %5) #16
  call void @llvm.lifetime.end.p0(i64 8, ptr %4) #16
  call void @llvm.lifetime.end.p0(i64 8, ptr %3) #16
  ret i64 %37
}