; Function Attrs: nounwind sspstrong uwtable
define internal i64 @ossl_ts_token_info_get_msg_imprint(i64 noundef %0) #0 {
  %2 = tail call ptr @rb_check_typeddata(i64 noundef %0, ptr noundef nonnull @ossl_ts_token_info_type) #7
  %.not = icmp eq ptr %2, null
  br i1 %.not, label %3, label %5

3:                                                ; preds = %1
  %4 = load i64, ptr @rb_eRuntimeError, align 8, !tbaa !6
  tail call void (i64, ptr, ...) @ossl_raise(i64 noundef %4, ptr noundef nonnull @.str.53) #8
  unreachable

5:                                                ; preds = %1
  %6 = tail call ptr @TS_TST_INFO_get_msg_imprint(ptr noundef nonnull %2) #7
  %7 = tail call ptr @TS_MSG_IMPRINT_get_msg(ptr noundef %6) #7
  %8 = getelementptr inbounds nuw i8, ptr %7, i64 8
  %9 = load ptr, ptr %8, align 8, !tbaa !52
  %10 = load i32, ptr %7, align 8, !tbaa !54
  %11 = sext i32 %10 to i64
  %12 = tail call i64 @rb_str_new(ptr noundef %9, i64 noundef %11) #7
  ret i64 %12
}